target datalayout = "e-m:e-p270:32:32-p271:32:32-p272:64:64-i64:64-i128:128-f80:128-n8:16:32:64-S128"
target triple = "x86_64-pc-linux-gnu"

%struct._object = type { %union.anon, ptr }
%union.anon = type { i64 }
%struct._typeobject = type { %struct.PyVarObject, ptr, i64, i64, ptr, i64, ptr, ptr, ptr, ptr, ptr, ptr, ptr, ptr, ptr, ptr, ptr, ptr, ptr, i64, ptr, ptr, ptr, ptr, i64, ptr, ptr, ptr, ptr, ptr, ptr, ptr, ptr, ptr, i64, ptr, ptr, ptr, ptr, ptr, ptr, ptr, ptr, ptr, ptr, ptr, i32, ptr, ptr, i8, i16 }
%struct.PyVarObject = type { %struct._object, i64 }

@PyExc_TypeError = external global ptr, align 8
@.str.7 = private unnamed_addr constant [14 x i8] c"dict expected\00", align 1

; Function Attrs: inlinehint nounwind uwtable
define internal i32 @PyType_HasFeature(ptr noundef %0, i64 noundef %1) #3 {
  %3 = alloca ptr, align 8
  %4 = alloca i64, align 8
  %5 = alloca i64, align 8
  store ptr %0, ptr %3, align 8, !tbaa !21
  store i64 %1, ptr %4, align 8, !tbaa !23
  call void @llvm.lifetime.start.p0(i64 8, ptr %5) #8
  %6 = load ptr, ptr %3, align 8, !tbaa !21
  %7 = getelementptr inbounds nuw %struct._typeobject, ptr %6, i32 0, i32 19
  %8 = load i64, ptr %7, align 8, !tbaa !25
  store i64 %8, ptr %5, align 8, !tbaa !23
  %9 = load i64, ptr %5, align 8, !tbaa !23
  %10 = load i64, ptr %4, align 8, !tbaa !23
  %11 = and i64 %9, %10
  %12 = icmp ne i64 %11, 0
  %13 = zext i1 %12 to i32
  call void @llvm.lifetime.end.p0(i64 8, ptr %5) #8
  ret i32 %13
}

; Function Attrs: inlinehint nounwind uwtable
define internal ptr @_Py_TYPE(ptr noundef %0) #3 {
  %2 = alloca ptr, align 8
  store ptr %0, ptr %2, align 8, !tbaa !8
  %3 = load ptr, ptr %2, align 8, !tbaa !8
  %4 = getelementptr inbounds nuw %struct._object, ptr %3, i32 0, i32 1
  %5 = load ptr, ptr %4, align 8, !tbaa !34
  ret ptr %5
}

; Function Attrs: nounwind uwtable
define dso_local i32 @_PyInterpreterConfig_UpdateFromDict(ptr noundef %0, ptr noundef %1) #0 {
  %3 = alloca i32, align 4
  %4 = alloca ptr, align 8
  %5 = alloca ptr, align 8
  store ptr %0, ptr %4, align 8, !tbaa !4
  store ptr %1, ptr %5, align 8, !tbaa !8
  %6 = load ptr, ptr %5, align 8, !tbaa !8
  %7 = call ptr @_Py_TYPE(ptr noundef %6)
  %8 = call i32 @PyType_HasFeature(ptr noundef %7, i64 noundef 536870912)
  %9 = icmp ne i32 %8, 0
  br i1 %9, label %12, label %10

10:                                               ; preds = %2
  %11 = load ptr, ptr @PyExc_TypeError, align 8, !tbaa !8
  call void @PyErr_SetString(ptr noundef %11, ptr noundef @.str.7)
  store i32 -1, ptr %3, align 4
  br label %19

12:                                               ; preds = %2
  %13 = load ptr, ptr %5, align 8, !tbaa !8
  %14 = load ptr, ptr %4, align 8, !tbaa !4
  %15 = call i32 @interp_config_from_dict(ptr noundef %13, ptr noundef %14, i1 noundef zeroext true)
  %16 = icmp slt i32 %15, 0
  br i1 %16, label %17, label %18

17:                                               ; preds = %12
  store i32 -1, ptr %3, align 4
  br label %19

18:                                               ; preds = %12
  store i32 0, ptr %3, align 4
  br label %19

19:                                               ; preds = %18, %17, %10
  %20 = load i32, ptr %3, align 4
  ret i32 %20
}