; Function Attrs: nounwind uwtable
define dso_local range(i32 -1, 1) i32 @_PyInterpreterConfig_UpdateFromDict(ptr noundef writeonly captures(none) %0, ptr noundef %1) local_unnamed_addr #0 {
  %3 = getelementptr i8, ptr %1, i64 8
  %.val = load ptr, ptr %3, align 8, !tbaa !19
  %4 = getelementptr i8, ptr %.val, i64 168
  %.val3 = load i64, ptr %4, align 8, !tbaa !22
  %5 = and i64 %.val3, 536870912
  %.not = icmp eq i64 %5, 0
  br i1 %.not, label %6, label %8

6:                                                ; preds = %2
  %7 = load ptr, ptr @PyExc_TypeError, align 8, !tbaa !16
  tail call void @PyErr_SetString(ptr noundef %7, ptr noundef nonnull @.str.7) #6
  br label %10

8:                                                ; preds = %2
  %9 = tail call fastcc i32 @interp_config_from_dict(ptr noundef nonnull %1, ptr noundef %0, i1 noundef zeroext true)
  br label %10

10:                                               ; preds = %8, %6
  %.0 = phi i32 [ -1, %6 ], [ %9, %8 ]
  ret i32 %.0
}